(dp0
S'all'
p1
S'1'
p2
sS'ganz'
p3
g2
sS'weshalb'
p4
g2
sS'sollte'
p5
g2
sS'selbst'
p6
g2
sS'go'
p7
g2
sS'als'
p8
g2
sS'dagegen'
p9
g2
sS'macht'
p10
g2
sS'dafuer'
p11
g2
sS'dazu'
p12
g2
sS'auf'
p13
g2
sS"when's"
p14
g2
sS'tu'
p15
g2
sS'deswegen'
p16
g2
sS'to'
p17
g2
sS'aus'
p18
g2
sS'under'
p19
g2
sS"they'll"
p20
g2
sS'hattet'
p21
g2
sS'wohin'
p22
g2
sS'ihnen'
p23
g2
sS'#fb'
p24
g2
sS'gerade'
p25
g2
sS'hatten'
p26
g2
sS'einmal'
p27
g2
sS'yourselves'
p28
g2
sS"we'll"
p29
g2
sS'did'
p30
g2
sS'die'
p31
g2
sS'warst'
p32
g2
sS"they've"
p33
g2
sS'haben'
p34
g2
sS'gut'
p35
g2
sS'sogar'
p36
g2
sS'dir'
p37
g2
sS"i'll"
p38
g2
sS"you'd"
p39
g2
sS'zu'
p40
g2
sS'ohne'
p41
g2
sS'ned'
p42
g2
sS'above'
p43
g2
sS'net'
p44
g2
sS'jede'
p45
g2
sS'can'
p46
g2
sS'dort'
p47
g2
sS'weit'
p48
g2
sS'here'
p49
g2
sS'kannst'
p50
g2
sS'nicht'
p51
g2
sS'vorher'
p52
g2
sS'hast'
p53
g2
sS'sind'
p54
g2
sS"aren't"
p55
g2
sS'k'
p56
g2
sS'fragen'
p57
g2
sS'ueber'
p58
g2
sS'durch'
p59
g2
sS"i'm"
p60
g2
sS'bevor'
p61
g2
sS'gehts'
p62
g2
sS'via'
p63
g2
sS'waeren'
p64
g2
sS'wir'
p65
g2
sS'welch'
p66
g2
sS'aufs'
p67
g2
sS'from'
p68
g2
sS'would'
p69
g2
sS'besten'
p70
g2
sS'bestem'
p71
g2
sS'gern'
p72
g2
sS'daneben'
p73
g2
sS'few'
p74
g2
sS'bestes'
p75
g2
sS'bester'
p76
g2
sS'darum'
p77
g2
sS'wollen'
p78
g2
sS'themselves'
p79
g2
sS'is'
p80
g2
sS'sondern'
p81
g2
sS'willst'
p82
g2
sS'on'
p83
g2
sS'wann'
p84
g2
sS'haha'
p85
g2
sS'wars'
p86
g2
sS'unsere'
p87
g2
sS'muss'
p88
g2
sS'me'
p89
g2
sS'f'
p90
g2
sS'this'
p91
g2
sS'der'
p92
g2
sS'des'
p93
g2
sS'trotz'
p94
g2
sS'dem'
p95
g2
sS'den'
p96
g2
sS'v'
p97
g2
sS'irgendwas'
p98
g2
sS'my'
p99
g2
sS'ihre'
p100
g2
sS'wieder'
p101
g2
sS'noch'
p102
g2
sS'gegen'
p103
g2
sS'jeweils'
p104
g2
sS'ob'
p105
g2
sS'zwischen'
p106
g2
sS'moechte'
p107
g2
sS'mehr'
p108
g2
sS'niemand'
p109
g2
sS'#ff'
p110
g2
sS'waren'
p111
g2
sS'vorbei'
p112
g2
sS'w'
p113
g2
sS'after'
p114
g2
sS'waer'
p115
g2
sS'mag'
p116
g2
sS'such'
p117
g2
sS'mal'
p118
g2
sS'man'
p119
g2
sS'a'
p120
g2
sS'kein'
p121
g2
sS'eher'
p122
g2
sS'q'
p123
g2
sS'cannot'
p124
g2
sS'so'
p125
g2
sS"that's"
p126
g2
sS"don't"
p127
g2
sS'over'
p128
g2
sS'immer'
p129
g2
sS'own'
p130
g2
sS'through'
p131
g2
sS'bloss'
p132
g2
sS'during'
p133
g2
sS'irgendeine'
p134
g2
sS'its'
p135
g2
sS'before'
p136
g2
sS'alle'
p137
g2
sS"he's"
p138
g2
sS"he'd"
p139
g2
sS'ours'
p140
g2
sS"haven't"
p141
g2
sS'then'
p142
g2
sS'them'
p143
g2
sS'halt'
p144
g2
sS'beim'
p145
g2
sS'deinem'
p146
g2
sS'deinen'
p147
g2
sS'dat'
p148
g2
sS'deines'
p149
g2
sS'deiner'
p150
g2
sS"you've"
p151
g2
sS'they'
p152
g2
sS'das'
p153
g2
sS'not'
p154
g2
sS"gibt's"
p155
g2
sS'now'
p156
g2
sS'nor'
p157
g2
sS'wenn'
p158
g2
sS'irgendwen'
p159
g2
sS'eben'
p160
g2
sS'l'
p161
g2
sS'h'
p162
g2
sS'echt'
p163
g2
sS"mustn't"
p164
g2
sS"isn't"
p165
g2
sS'guten'
p166
g2
sS'ueberhaupt'
p167
g2
sS'eh'
p168
g2
sS'nein'
p169
g2
sS'doing'
p170
g2
sS'sollten'
p171
g2
sS"we'd"
p172
g2
sS'our'
p173
g2
sS'wegen'
p174
g2
sS'solchen'
p175
g2
sS'solchem'
p176
g2
sS'er'
p177
g2
sS'rt'
p178
g2
sS'p'
p179
g2
sS'wuerde'
p180
g2
sS'werdet'
p181
g2
sS'diesem'
p182
g2
sS'diesen'
p183
g2
sS'your'
p184
g2
sS'werden'
p185
g2
sS'dieser'
p186
g2
sS'dieses'
p187
g2
sS"shouldn't"
p188
g2
sS'werde'
p189
g2
sS"you're"
p190
g2
sS'auch'
p191
g2
sS'kaum'
p192
g2
sS'x'
p193
g2
sS'g'
p194
g2
sS'where'
p195
g2
sS'could'
p196
g2
sS'dabei'
p197
g2
sS'ist'
p198
g2
sS'solch'
p199
g2
sS'deshalb'
p200
g2
sS'einer'
p201
g2
sS'eines'
p202
g2
sS'ihr'
p203
g2
sS'nach'
p204
g2
sS'yourself'
p205
g2
sS'ihn'
p206
g2
sS'ihm'
p207
g2
sS'einen'
p208
g2
sS'xp'
p209
g2
sS'einem'
p210
g2
sS"doesn't"
p211
g2
sS'their'
p212
g2
sS'too'
p213
g2
sS'jenes'
p214
g2
sS'jener'
p215
g2
sS'that'
p216
g2
sS'off'
p217
g2
sS'schon'
p218
g2
sS'than'
p219
g2
sS"here's"
p220
g2
sS'wofuer'
p221
g2
sS'bei'
p222
g2
sS'musst'
p223
g2
sS'vielen'
p224
g2
sS'welchem'
p225
g2
sS'thx'
p226
g2
sS'wuerden'
p227
g2
sS'dann'
p228
g2
sS'r'
p229
g2
sS'irgendetwas'
p230
g2
sS'were'
p231
g2
sS'geht'
p232
g2
sS'and'
p233
g2
sS'seinem'
p234
g2
sS'seinen'
p235
g2
sS'alles'
p236
g2
sS'pro'
p237
g2
sS'dass'
p238
g2
sS'dazwischen'
p239
g2
sS'have'
p240
g2
sS'further'
p241
g2
sS'allen'
p242
g2
sS'allem'
p243
g2
sS'any'
p244
g2
sS'seiner'
p245
g2
sS'seines'
p246
g2
sS'these'
p247
g2
sS'sollt'
p248
g2
sS'euch'
p249
g2
sS'also'
p250
g2
sS'best'
p251
g2
sS'which'
p252
g2
sS'mir'
p253
g2
sS'zumindest'
p254
g2
sS'mit'
p255
g2
sS'soweit'
p256
g2
sS'who'
p257
g2
sS'wird'
p258
g2
sS'falls'
p259
g2
sS"where's"
p260
g2
sS'jemand'
p261
g2
sS'the'
p262
g2
sS'es'
p263
g2
sS'bzw'
p264
g2
sS'meine'
p265
g2
sS'm'
p266
g2
sS"you'll"
p267
g2
sS'denn'
p268
g2
sS'solche'
p269
g2
sS'hm'
p270
g2
sS'd:'
p271
g2
sS'bereits'
p272
g2
sS'weitere'
p273
g2
sS'sagt'
p274
g2
sS'wirst'
p275
g2
sS'dessen'
p276
g2
sS'fuer'
p277
g2
sS'dich'
p278
g2
sS'herself'
p279
g2
sS"won't"
p280
g2
sS'daher'
p281
g2
sS'only'
p282
g2
sS'weswegen'
p283
g2
sS'hatte'
p284
g2
sS'do'
p285
g2
sS'his'
p286
g2
sS'mein'
p287
g2
sS'deine'
p288
g2
sS'da'
p289
g2
sS"they'd"
p290
g2
sS'b'
p291
g2
sS'obgleich'
p292
g2
sS'du'
p293
g2
sS'him'
p294
g2
sS'hin'
p295
g2
sS'viel'
p296
g2
sS'keiner'
p297
g2
sS'keines'
p298
g2
sS'niemanden'
p299
g2
sS'seitdem'
p300
g2
sS'grau'
p301
g2
sS'she'
p302
g2
sS'solltet'
p303
g2
sS'nichts'
p304
g2
sS'keinem'
p305
g2
sS'keinen'
p306
g2
sS'grad'
p307
g2
sS'theirs'
p308
g2
sS'nur'
p309
g2
sS'we'
p310
g2
sS'up'
p311
g2
sS'nun'
p312
g2
sS'neben'
p313
g2
sS'are'
p314
g2
sS'manchmal'
p315
g2
sS'o_o'
p316
g2
sS'einfach'
p317
g2
sS'sei'
p318
g2
sS'sehr'
p319
g2
sS'statt'
p320
g2
sS'glaub'
p321
g2
sS'wow'
p322
g2
sS'weiter'
p323
g2
sS"there's"
p324
g2
sS'sonst'
p325
g2
sS'between'
p326
g2
sS'dank'
p327
g2
sS'dein'
p328
g2
sS'niemandem'
p329
g2
sS'soll'
p330
g2
sS'jeden'
p331
g2
sS'jedem'
p332
g2
sS'diese'
p333
g2
sS'wo'
p334
g2
sS'irgendeinem'
p335
g2
sS'tut'
p336
g2
sS'irgendeinen'
p337
g2
sS'irgendeiner'
p338
g2
sS'tun'
p339
g2
sS'jedes'
p340
g2
sS'je'
p341
g2
sS'ja'
p342
g2
sS'both'
p343
g2
sS'c'
p344
g2
sS'lass'
p345
g2
sS"wouldn't"
p346
g2
sS'against'
p347
g2
sS'etc'
p348
g2
sS's'
p349
g2
sS'und'
p350
g2
sS'dadurch'
p351
g2
sS"can't"
p352
g2
sS'jemandem'
p353
g2
sS'jemanden'
p354
g2
sS'each'
p355
g2
sS"hadn't"
p356
g2
sS'ab'
p357
g2
sS"couldn't"
p358
g2
sS'jeder'
p359
g2
sS'gerne'
p360
g2
sS'gleich'
p361
g2
sS'most'
p362
g2
sS"it's"
p363
g2
sS'oder'
p364
g2
sS'hers'
p365
g2
sS'been'
p366
g2
sS'whom'
p367
g2
sS'damit'
p368
g2
sS'viele'
p369
g2
sS'wurde'
p370
g2
sS"what's"
p371
g2
sS'gar'
p372
g2
sS'you'
p373
g2
sS'sollst'
p374
g2
sS'uns'
p375
g2
sS'an'
p376
g2
sS'erst'
p377
g2
sS'those'
p378
g2
sS'myself'
p379
g2
sS'fur'
p380
g2
sS'hattest'
p381
g2
sS'glaube'
p382
g2
sS'irgendwo'
p383
g2
sS'n'
p384
g2
sS'will'
p385
g2
sS'while'
p386
g2
sS'ein'
p387
g2
sS'vom'
p388
g2
sS'von'
p389
g2
sS'wenig'
p390
g2
sS'it'
p391
g2
sS'itself'
p392
g2
sS'im'
p393
g2
sS'vor'
p394
g2
sS'in'
p395
g2
sS'if'
p396
g2
sS'sowie'
p397
g2
sS'same'
p398
g2
sS"i'd"
p399
g2
sS'welche'
p400
g2
sS'ausser'
p401
g2
sS"weren't"
p402
g2
sS'warum'
p403
g2
sS'zwar'
p404
g2
sS'jetzt'
p405
g2
sS'nie'
p406
g2
sS'nix'
p407
g2
sS'eure'
p408
g2
sS"he'll"
p409
g2
sS'ihrem'
p410
g2
sS'ihren'
p411
g2
sS'i'
p412
g2
sS'doch'
p413
g2
sS'more'
p414
g2
sS'machen'
p415
g2
sS'y'
p416
g2
sS'wessen'
p417
g2
sS'ihres'
p418
g2
sS'ihrer'
p419
g2
sS'yours'
p420
g2
sS"she'll"
p421
g2
sS'denen'
p422
g2
sS'just'
p423
g2
sS'nachdem'
p424
g2
sS'being'
p425
g2
sS'when'
p426
g2
sS'wie'
p427
g2
sS'worueber'
p428
g2
sS'anders'
p429
g2
sS'damals'
p430
g2
sS'deren'
p431
g2
sS"we've"
p432
g2
sS'hab'
p433
g2
sS'obwohl'
p434
g2
sS'had'
p435
g2
sS'wen'
p436
g2
sS'wem'
p437
g2
sS'danke'
p438
g2
sS'wer'
p439
g2
sS'has'
p440
g2
sS'hat'
p441
g2
sS'gute'
p442
g2
sS'ought'
p443
g2
sS'bin'
p444
g2
sS'unter'
p445
g2
sS"who's"
p446
g2
sS'lassen'
p447
g2
sS'bis'
p448
g2
sS'wobei'
p449
g2
sS'd'
p450
g2
sS'should'
p451
g2
sS't'
p452
g2
sS"why's"
p453
g2
sS'because'
p454
g2
sS'irgendwie'
p455
g2
sS'what'
p456
g2
sS'twitter'
p457
g2
sS'some'
p458
g2
sS'sollen'
p459
g2
sS'hinter'
p460
g2
sS'zusammen'
p461
g2
sS'ourselves'
p462
g2
sS"shan't"
p463
g2
sS'besser'
p464
g2
sS'ich'
p465
g2
sS'ums'
p466
g2
sS'meinen'
p467
g2
sS'per'
p468
g2
sS'meinem'
p469
g2
sS'meiner'
p470
g2
sS'meines'
p471
g2
sS'does'
p472
g2
sS'seien'
p473
g2
sS'be'
p474
g2
sS'vielleicht'
p475
g2
sS'seine'
p476
g2
sS'how'
p477
g2
sS'weil'
p478
g2
sS'habe'
p479
g2
sS'super'
p480
g2
sS'by'
p481
g2
sS'zur'
p482
g2
sS'wurden'
p483
g2
sS'about'
p484
g2
sS'ok'
p485
g2
sS'oh'
p486
g2
sS'wenngleich'
p487
g2
sS'of'
p488
g2
sS'bist'
p489
g2
sS'ach'
p490
g2
sS'darauf'
p491
g2
sS'o'
p492
g2
sS'daran'
p493
g2
sS'hier'
p494
g2
sS'daraus'
p495
g2
sS'or'
p496
g2
sS'zum'
p497
g2
sS'kann'
p498
g2
sS'eins'
p499
g2
sS'aber'
p500
g2
sS'weder'
p501
g2
sS'into'
p502
g2
sS'down'
p503
g2
sS'very'
p504
g2
sS'eine'
p505
g2
sS'bitte'
p506
g2
sS'wollt'
p507
g2
sS'welches'
p508
g2
sS'welcher'
p509
g2
sS"how's"
p510
g2
sS'her'
p511
g2
sS'sie'
p512
g2
sS'there'
p513
g2
sS"didn't"
p514
g2
sS'fast'
p515
g2
sS'why'
p516
g2
sS'los'
p517
g2
sS"we're"
p518
g2
sS'euer'
p519
g2
sS'was'
p520
g2
sS'war'
p521
g2
sS'welchen'
p522
g2
sS'himself'
p523
g2
sS'umso'
p524
g2
sS"i've"
p525
g2
sS'haette'
p526
g2
sS'but'
p527
g2
sS'gibt'
p528
g2
sS'leider'
p529
g2
sS'mich'
p530
g2
sS'with'
p531
g2
sS'he'
p532
g2
sS"they're"
p533
g2
sS'woher'
p534
g2
sS'seit'
p535
g2
sS"wasn't"
p536
g2
sS'j'
p537
g2
sS"hasn't"
p538
g2
sS'until'
p539
g2
sS'um'
p540
g2
sS'below'
p541
g2
sS'seid'
p542
g2
sS'z'
p543
g2
sS'sein'
p544
g2
sS'davon'
p545
g2
sS'furs'
p546
g2
sS'keine'
p547
g2
sS'ah'
p548
g2
sS'am'
p549
g2
sS'ins'
p550
g2
sS'as'
p551
g2
sS'at'
p552
g2
sS'again'
p553
g2
sS'naja'
p554
g2
sS'no'
p555
g2
sS'wollten'
p556
g2
sS'na'
p557
g2
sS'sowas'
p558
g2
sS'wollte'
p559
g2
sS'worauf'
p560
g2
sS'irgendein'
p561
g2
sS'wolltet'
p562
g2
sS'other'
p563
g2
sS'sich'
p564
g2
sS'u'
p565
g2
sS'eigentlich'
p566
g2
sS'out'
p567
g2
sS'genau'
p568
g2
sS'haetten'
p569
g2
sS'dies'
p570
g2
sS'wohl'
p571
g2
sS'etwas'
p572
g2
sS"let's"
p573
g2
sS'solches'
p574
g2
sS'wieso'
p575
g2
sS'haettet'
p576
g2
sS'e'
p577
g2
sS'for'
p578
g2
sS'gehen'
p579
g2
sS"she'd"
p580
g2
sS'gibts'
p581
g2
sS'unser'
p582
g2
sS"she's"
p583
g2
sS'trotzdem'
p584
g2
sS'having'
p585
g2
sS'once'
p586
g2
s.